target datalayout = "e-m:e-p270:32:32-p271:32:32-p272:64:64-i64:64-i128:128-f80:128-n8:16:32:64-S128"
target triple = "x86_64-pc-linux-gnu"

%"class.llvm::cl::Option" = type { ptr, i16, i16, i16, i16, %"class.llvm::StringRef", %"class.llvm::StringRef", %"class.llvm::StringRef", %"class.llvm::SmallVector", %"class.llvm::SmallPtrSet" }
%"class.llvm::StringRef" = type { ptr, i64 }
%"class.llvm::SmallVector" = type { %"class.llvm::SmallVectorImpl", %"struct.llvm::SmallVectorStorage" }
%"class.llvm::SmallVectorImpl" = type { %"class.llvm::SmallVectorTemplateBase" }
%"class.llvm::SmallVectorTemplateBase" = type { %"class.llvm::SmallVectorTemplateCommon" }
%"class.llvm::SmallVectorTemplateCommon" = type { %"class.llvm::SmallVectorBase" }
%"class.llvm::SmallVectorBase" = type { ptr, i32, i32 }
%"struct.llvm::SmallVectorStorage" = type { [8 x i8] }
%"class.llvm::SmallPtrSet" = type { %"class.llvm::SmallPtrSetImpl.base", [1 x ptr] }
%"class.llvm::SmallPtrSetImpl.base" = type { %"class.llvm::SmallPtrSetImplBase.base" }
%"class.llvm::SmallPtrSetImplBase.base" = type <{ ptr, ptr, i32, i32, i32 }>
%"struct.llvm::cl::GenericOptionValue" = type { ptr }
%"class.llvm::cl::basic_parser_impl" = type { ptr }
%"class.std::_Function_base" = type { %"union.std::_Any_data", ptr }
%"union.std::_Any_data" = type { %"union.std::_Nocopy_types" }
%"union.std::_Nocopy_types" = type { { i64, i64 } }
%"class.llvm::cl::opt.0" = type { %"class.llvm::cl::Option", %"class.llvm::cl::opt_storage.1", %"class.llvm::cl::parser.8", %"class.std::function.10" }
%"class.llvm::cl::opt_storage.1" = type { i8, [7 x i8], %"struct.llvm::cl::OptionValue.2" }
%"struct.llvm::cl::OptionValue.2" = type { %"struct.llvm::cl::OptionValueBase.base.6", [6 x i8] }
%"struct.llvm::cl::OptionValueBase.base.6" = type { %"class.llvm::cl::OptionValueCopy.base.5" }
%"class.llvm::cl::OptionValueCopy.base.5" = type <{ %"struct.llvm::cl::GenericOptionValue", i8, i8 }>
%"class.llvm::cl::parser.8" = type { %"class.llvm::cl::basic_parser.9" }
%"class.llvm::cl::basic_parser.9" = type { %"class.llvm::cl::basic_parser_impl" }
%"class.std::function.10" = type { %"class.std::_Function_base", ptr }
%"class.std::optional.80" = type { %"struct.std::_Optional_base.81" }
%"struct.std::_Optional_base.81" = type { %"struct.std::_Optional_payload.83" }
%"struct.std::_Optional_payload.83" = type { %"struct.std::_Optional_payload.base.88", [7 x i8] }
%"struct.std::_Optional_payload.base.88" = type { %"struct.std::_Optional_payload_base.base.87" }
%"struct.std::_Optional_payload_base.base.87" = type { %"union.std::_Optional_payload_base<llvm::CostBenefitPair>::_Storage", i8 }
%"union.std::_Optional_payload_base<llvm::CostBenefitPair>::_Storage" = type { %"class.llvm::CostBenefitPair" }
%"class.llvm::CostBenefitPair" = type { %"class.llvm::APInt", %"class.llvm::APInt" }
%"class.llvm::APInt" = type <{ %union.anon.86, i32, [4 x i8] }>
%union.anon.86 = type { i64 }
%"class.llvm::function_ref.79" = type { ptr, i64 }
%"class.llvm::function_ref" = type { ptr, i64 }
%"class.(anonymous namespace)::InlineCostCallAnalyzer" = type { %"class.(anonymous namespace)::CallAnalyzer", i8, i32, i32, i32, ptr, %"class.llvm::DenseMap.115", i32, i32, i8, i8, i8, i32, i32, i32, i8, i8, [6 x i8], %"class.std::optional.80", i8, i32, i32, [4 x i8], %"class.llvm::DenseMap.118", %"class.(anonymous namespace)::InlineCostAnnotationWriter" }
%"class.(anonymous namespace)::CallAnalyzer" = type { ptr, ptr, %"class.llvm::function_ref", %"class.llvm::function_ref.79", ptr, ptr, ptr, ptr, ptr, i8, i8, i8, i8, i8, i8, i8, i8, i8, i64, i32, i32, %"class.llvm::DenseMap", %"class.llvm::DenseMap.97", %"class.llvm::DenseSet", %"class.llvm::DenseMap.103", %"class.llvm::SmallPtrSet.106", %"class.llvm::DenseMap.109", i8, i8, %"class.llvm::SmallPtrSet.112", i32, i32, i32, i32, i32, i32 }
%"class.llvm::DenseMap" = type <{ ptr, i32, i32, i32, [4 x i8] }>
%"class.llvm::DenseMap.97" = type <{ ptr, i32, i32, i32, [4 x i8] }>
%"class.llvm::DenseSet" = type { %"class.llvm::detail::DenseSetImpl" }
%"class.llvm::detail::DenseSetImpl" = type { %"class.llvm::DenseMap.100" }
%"class.llvm::DenseMap.100" = type <{ ptr, i32, i32, i32, [4 x i8] }>
%"class.llvm::DenseMap.103" = type <{ ptr, i32, i32, i32, [4 x i8] }>
%"class.llvm::SmallPtrSet.106" = type { %"class.llvm::SmallPtrSetImpl.base.108", [16 x ptr] }
%"class.llvm::SmallPtrSetImpl.base.108" = type { %"class.llvm::SmallPtrSetImplBase.base" }
%"class.llvm::DenseMap.109" = type <{ ptr, i32, i32, i32, [4 x i8] }>
%"class.llvm::SmallPtrSet.112" = type { %"class.llvm::SmallPtrSetImpl.base.114", [16 x ptr] }
%"class.llvm::SmallPtrSetImpl.base.114" = type { %"class.llvm::SmallPtrSetImplBase.base" }
%"class.llvm::DenseMap.115" = type <{ ptr, i32, i32, i32, [4 x i8] }>
%"class.llvm::DenseMap.118" = type <{ ptr, i32, i32, i32, [4 x i8] }>
%"class.(anonymous namespace)::InlineCostAnnotationWriter" = type { %"class.llvm::AssemblyAnnotationWriter", ptr }
%"class.llvm::AssemblyAnnotationWriter" = type { ptr }
%"struct.(anonymous namespace)::InstructionCostDetail" = type { i32, i32, i32, i32 }

@_ZL24PrintInstructionComments = internal global %"class.llvm::cl::opt.0" zeroinitializer, align 8

; Function Attrs: mustprogress nounwind uwtable
define linkonce_odr hidden noundef zeroext i1 @_ZNK4llvm2cl11opt_storageIbLb0ELb0EE8getValueEv(ptr noundef nonnull align 8 dereferenceable(24) %0) #1 comdat align 2 {
  %2 = alloca ptr, align 8
  store ptr %0, ptr %2, align 8
  %3 = load ptr, ptr %2, align 8
  %4 = getelementptr inbounds nuw %"class.llvm::cl::opt_storage.1", ptr %3, i32 0, i32 0
  %5 = load i8, ptr %4, align 8
  %6 = trunc i8 %5 to i1
  ret i1 %6
}

; Function Attrs: mustprogress nounwind uwtable
define linkonce_odr hidden noundef zeroext i1 @_ZNK4llvm2cl11opt_storageIbLb0ELb0EEcvbEv(ptr noundef nonnull align 8 dereferenceable(24) %0) #1 comdat align 2 {
  %2 = alloca ptr, align 8
  store ptr %0, ptr %2, align 8
  %3 = load ptr, ptr %2, align 8
  %4 = call noundef zeroext i1 @_ZNK4llvm2cl11opt_storageIbLb0ELb0EE8getValueEv(ptr noundef nonnull align 8 dereferenceable(24) %3)
  ret i1 %4
}

; Function Attrs: mustprogress nounwind uwtable
define internal void @_ZN12_GLOBAL__N_122InlineCostCallAnalyzer27onInstructionAnalysisFinishEPKN4llvm11InstructionE(ptr noundef nonnull align 8 dereferenceable(768) %0, ptr noundef %1) unnamed_addr #1 align 2 {
  %3 = alloca ptr, align 8
  %4 = alloca ptr, align 8
  store ptr %0, ptr %3, align 8
  store ptr %1, ptr %4, align 8
  %5 = load ptr, ptr %3, align 8
  %6 = call noundef zeroext i1 @_ZNK4llvm2cl11opt_storageIbLb0ELb0EEcvbEv(ptr noundef nonnull align 8 dereferenceable(24) getelementptr inbounds (i8, ptr @_ZL24PrintInstructionComments, i64 128))
  br i1 %6, label %8, label %7

7:                                                ; preds = %2
  br label %19

8:                                                ; preds = %2
  %9 = getelementptr inbounds nuw %"class.(anonymous namespace)::InlineCostCallAnalyzer", ptr %5, i32 0, i32 12
  %10 = load i32, ptr %9, align 4
  %11 = getelementptr inbounds nuw %"class.(anonymous namespace)::InlineCostCallAnalyzer", ptr %5, i32 0, i32 6
  %12 = call noundef nonnull align 4 dereferenceable(16) ptr @_ZN4llvm12DenseMapBaseINS_8DenseMapIPKNS_11InstructionEN12_GLOBAL__N_121InstructionCostDetailENS_12DenseMapInfoIS4_vEENS_6detail12DenseMapPairIS4_S6_EEEES4_S6_S8_SB_EixERKS4_(ptr noundef nonnull align 1 dereferenceable(1) %11, ptr noundef nonnull align 8 dereferenceable(8) %4)
  %13 = getelementptr inbounds nuw %"struct.(anonymous namespace)::InstructionCostDetail", ptr %12, i32 0, i32 1
  store i32 %10, ptr %13, align 4
  %14 = getelementptr inbounds nuw %"class.(anonymous namespace)::InlineCostCallAnalyzer", ptr %5, i32 0, i32 7
  %15 = load i32, ptr %14, align 8
  %16 = getelementptr inbounds nuw %"class.(anonymous namespace)::InlineCostCallAnalyzer", ptr %5, i32 0, i32 6
  %17 = call noundef nonnull align 4 dereferenceable(16) ptr @_ZN4llvm12DenseMapBaseINS_8DenseMapIPKNS_11InstructionEN12_GLOBAL__N_121InstructionCostDetailENS_12DenseMapInfoIS4_vEENS_6detail12DenseMapPairIS4_S6_EEEES4_S6_S8_SB_EixERKS4_(ptr noundef nonnull align 1 dereferenceable(1) %16, ptr noundef nonnull align 8 dereferenceable(8) %4)
  %18 = getelementptr inbounds nuw %"struct.(anonymous namespace)::InstructionCostDetail", ptr %17, i32 0, i32 3
  store i32 %15, ptr %18, align 4
  br label %19

19:                                               ; preds = %8, %7
  ret void
}