; Function Attrs: mustprogress nounwind uwtable
define internal void @_ZN12_GLOBAL__N_122InlineCostCallAnalyzer27onInstructionAnalysisFinishEPKN4llvm11InstructionE(ptr noundef nonnull align 8 captures(none) dereferenceable(768) %0, ptr noundef %1) unnamed_addr #0 align 2 {
  %3 = load i8, ptr getelementptr inbounds nuw (i8, ptr @_ZL24PrintInstructionComments, i64 128), align 8
  %4 = trunc i8 %3 to i1
  br i1 %4, label %5, label %15

5:                                                ; preds = %2
  %6 = getelementptr inbounds nuw i8, ptr %0, i64 652
  %7 = load i32, ptr %6, align 4
  %8 = getelementptr inbounds nuw i8, ptr %0, i64 616
  %9 = tail call fastcc noundef nonnull align 4 dereferenceable(16) ptr @_ZN4llvm12DenseMapBaseINS_8DenseMapIPKNS_11InstructionEN12_GLOBAL__N_121InstructionCostDetailENS_12DenseMapInfoIS4_vEENS_6detail12DenseMapPairIS4_S6_EEEES4_S6_S8_SB_EixERKS4_(ptr noundef nonnull align 1 dereferenceable(1) %8, ptr %1)
  %10 = getelementptr inbounds nuw i8, ptr %9, i64 4
  store i32 %7, ptr %10, align 4
  %11 = getelementptr inbounds nuw i8, ptr %0, i64 640
  %12 = load i32, ptr %11, align 8
  %13 = tail call fastcc noundef nonnull align 4 dereferenceable(16) ptr @_ZN4llvm12DenseMapBaseINS_8DenseMapIPKNS_11InstructionEN12_GLOBAL__N_121InstructionCostDetailENS_12DenseMapInfoIS4_vEENS_6detail12DenseMapPairIS4_S6_EEEES4_S6_S8_SB_EixERKS4_(ptr noundef nonnull align 1 dereferenceable(1) %8, ptr %1)
  %14 = getelementptr inbounds nuw i8, ptr %13, i64 12
  store i32 %12, ptr %14, align 4
  br label %15

15:                                               ; preds = %2, %5
  ret void
}